target datalayout = "e-m:e-p270:32:32-p271:32:32-p272:64:64-i64:64-i128:128-f80:128-n8:16:32:64-S128"
target triple = "x86_64-pc-linux-gnu"

@_ZN6icu_77L22syntaxOrWhiteSpace2000E = internal constant [10 x i32] [i32 0, i32 -1, i32 -16384, i32 2147419135, i32 2146435070, i32 -65536, i32 4194303, i32 -1048576, i32 -242, i32 65537], align 16

; Function Attrs: mustprogress nounwind uwtable
define noundef signext i8 @_ZN6icu_7712PatternProps20isSyntaxOrWhiteSpaceEi(i32 noundef %0) #0 align 2 {
  %2 = alloca i8, align 1
  %3 = alloca i32, align 4
  %4 = alloca i32, align 4
  store i32 %0, ptr %3, align 4, !tbaa !3
  %5 = load i32, ptr %3, align 4, !tbaa !3
  %6 = icmp slt i32 %5, 0
  br i1 %6, label %7, label %8

7:                                                ; preds = %1
  store i8 0, ptr %2, align 1
  br label %58

8:                                                ; preds = %1
  %9 = load i32, ptr %3, align 4, !tbaa !3
  %10 = icmp sle i32 %9, 255
  br i1 %10, label %11, label %19

11:                                               ; preds = %8
  %12 = load i32, ptr %3, align 4, !tbaa !3
  %13 = sext i32 %12 to i64
  %14 = getelementptr inbounds [256 x i8], ptr @_ZN6icu_77L6latin1E, i64 0, i64 %13
  %15 = load i8, ptr %14, align 1, !tbaa !7
  %16 = zext i8 %15 to i32
  %17 = and i32 %16, 1
  %18 = trunc i32 %17 to i8
  store i8 %18, ptr %2, align 1
  br label %58

19:                                               ; preds = %8
  %20 = load i32, ptr %3, align 4, !tbaa !3
  %21 = icmp slt i32 %20, 8206
  br i1 %21, label %22, label %23

22:                                               ; preds = %19
  store i8 0, ptr %2, align 1
  br label %58

23:                                               ; preds = %19
  %24 = load i32, ptr %3, align 4, !tbaa !3
  %25 = icmp sle i32 %24, 12336
  br i1 %25, label %26, label %42

26:                                               ; preds = %23
  call void @llvm.lifetime.start.p0(i64 4, ptr %4) #5
  %27 = load i32, ptr %3, align 4, !tbaa !3
  %28 = sub nsw i32 %27, 8192
  %29 = ashr i32 %28, 5
  %30 = sext i32 %29 to i64
  %31 = getelementptr inbounds [130 x i8], ptr @_ZN6icu_77L9index2000E, i64 0, i64 %30
  %32 = load i8, ptr %31, align 1, !tbaa !7
  %33 = zext i8 %32 to i64
  %34 = getelementptr inbounds nuw [10 x i32], ptr @_ZN6icu_77L22syntaxOrWhiteSpace2000E, i64 0, i64 %33
  %35 = load i32, ptr %34, align 4, !tbaa !3
  store i32 %35, ptr %4, align 4, !tbaa !3
  %36 = load i32, ptr %4, align 4, !tbaa !3
  %37 = load i32, ptr %3, align 4, !tbaa !3
  %38 = and i32 %37, 31
  %39 = lshr i32 %36, %38
  %40 = and i32 %39, 1
  %41 = trunc i32 %40 to i8
  store i8 %41, ptr %2, align 1
  call void @llvm.lifetime.end.p0(i64 4, ptr %4) #5
  br label %58

42:                                               ; preds = %23
  %43 = load i32, ptr %3, align 4, !tbaa !3
  %44 = icmp sle i32 64830, %43
  br i1 %44, label %45, label %57

45:                                               ; preds = %42
  %46 = load i32, ptr %3, align 4, !tbaa !3
  %47 = icmp sle i32 %46, 65094
  br i1 %47, label %48, label %57

48:                                               ; preds = %45
  %49 = load i32, ptr %3, align 4, !tbaa !3
  %50 = icmp sle i32 %49, 64831
  br i1 %50, label %54, label %51

51:                                               ; preds = %48
  %52 = load i32, ptr %3, align 4, !tbaa !3
  %53 = icmp sle i32 65093, %52
  br label %54

54:                                               ; preds = %51, %48
  %55 = phi i1 [ true, %48 ], [ %53, %51 ]
  %56 = zext i1 %55 to i8
  store i8 %56, ptr %2, align 1
  br label %58

57:                                               ; preds = %45, %42
  store i8 0, ptr %2, align 1
  br label %58

58:                                               ; preds = %57, %54, %26, %22, %11, %7
  %59 = load i8, ptr %2, align 1
  ret i8 %59
}

; Function Attrs: mustprogress nounwind uwtable
define noundef ptr @_ZN6icu_7712PatternProps14skipIdentifierEPKDsi(ptr noundef %0, i32 noundef %1) #0 align 2 {
  %3 = alloca ptr, align 8
  %4 = alloca i32, align 4
  store ptr %0, ptr %3, align 8, !tbaa !8
  store i32 %1, ptr %4, align 4, !tbaa !3
  br label %5

5:                                                ; preds = %17, %2
  %6 = load i32, ptr %4, align 4, !tbaa !3
  %7 = icmp sgt i32 %6, 0
  br i1 %7, label %8, label %15

8:                                                ; preds = %5
  %9 = load ptr, ptr %3, align 8, !tbaa !8
  %10 = load i16, ptr %9, align 2, !tbaa !11
  %11 = zext i16 %10 to i32
  %12 = call noundef signext i8 @_ZN6icu_7712PatternProps20isSyntaxOrWhiteSpaceEi(i32 noundef %11)
  %13 = icmp ne i8 %12, 0
  %14 = xor i1 %13, true
  br label %15

15:                                               ; preds = %8, %5
  %16 = phi i1 [ false, %5 ], [ %14, %8 ]
  br i1 %16, label %17, label %22

17:                                               ; preds = %15
  %18 = load ptr, ptr %3, align 8, !tbaa !8
  %19 = getelementptr inbounds nuw i16, ptr %18, i32 1
  store ptr %19, ptr %3, align 8, !tbaa !8
  %20 = load i32, ptr %4, align 4, !tbaa !3
  %21 = add nsw i32 %20, -1
  store i32 %21, ptr %4, align 4, !tbaa !3
  br label %5, !llvm.loop !23

22:                                               ; preds = %15
  %23 = load ptr, ptr %3, align 8, !tbaa !8
  ret ptr %23
}