; Function Attrs: mustprogress nofree norecurse nosync nounwind willreturn memory(argmem: read) uwtable
define noundef ptr @_ZN6icu_7712PatternProps14skipIdentifierEPKDsi(ptr noundef readonly %0, i32 noundef %1) local_unnamed_addr #1 align 2 {
  %3 = icmp sgt i32 %1, 0
  br i1 %3, label %.lr.ph, label %.critedge

.lr.ph:                                           ; preds = %2, %_ZN6icu_7712PatternProps20isSyntaxOrWhiteSpaceEi.exit.thread
  %.08 = phi i32 [ %36, %_ZN6icu_7712PatternProps20isSyntaxOrWhiteSpaceEi.exit.thread ], [ %1, %2 ]
  %.047 = phi ptr [ %35, %_ZN6icu_7712PatternProps20isSyntaxOrWhiteSpaceEi.exit.thread ], [ %0, %2 ]
  %4 = load i16, ptr %.047, align 2, !tbaa !8
  %5 = zext i16 %4 to i32
  %6 = icmp ult i16 %4, 256
  br i1 %6, label %7, label %12

7:                                                ; preds = %.lr.ph
  %8 = zext nneg i16 %4 to i64
  %9 = getelementptr inbounds nuw [256 x i8], ptr @_ZN6icu_77L6latin1E, i64 0, i64 %8
  %10 = load i8, ptr %9, align 1, !tbaa !3
  %11 = and i8 %10, 1
  br label %_ZN6icu_7712PatternProps20isSyntaxOrWhiteSpaceEi.exit

12:                                               ; preds = %.lr.ph
  %13 = icmp ult i16 %4, 8206
  br i1 %13, label %_ZN6icu_7712PatternProps20isSyntaxOrWhiteSpaceEi.exit.thread, label %14

14:                                               ; preds = %12
  %15 = icmp ult i16 %4, 12337
  br i1 %15, label %16, label %29

16:                                               ; preds = %14
  %17 = add nsw i32 %5, -8192
  %18 = lshr i32 %17, 5
  %19 = zext nneg i32 %18 to i64
  %20 = getelementptr inbounds nuw [130 x i8], ptr @_ZN6icu_77L9index2000E, i64 0, i64 %19
  %21 = load i8, ptr %20, align 1, !tbaa !3
  %22 = zext i8 %21 to i64
  %23 = getelementptr inbounds nuw [10 x i32], ptr @_ZN6icu_77L22syntaxOrWhiteSpace2000E, i64 0, i64 %22
  %24 = load i32, ptr %23, align 4, !tbaa !6
  %25 = and i32 %5, 31
  %26 = lshr i32 %24, %25
  %27 = trunc i32 %26 to i8
  %28 = and i8 %27, 1
  br label %_ZN6icu_7712PatternProps20isSyntaxOrWhiteSpaceEi.exit

29:                                               ; preds = %14
  %30 = add i16 %4, 706
  %or.cond.i = icmp ult i16 %30, 265
  br i1 %or.cond.i, label %31, label %_ZN6icu_7712PatternProps20isSyntaxOrWhiteSpaceEi.exit.thread

31:                                               ; preds = %29
  %32 = add nsw i32 %5, -65093
  %33 = icmp ult i32 %32, -261
  %34 = zext i1 %33 to i8
  br label %_ZN6icu_7712PatternProps20isSyntaxOrWhiteSpaceEi.exit

_ZN6icu_7712PatternProps20isSyntaxOrWhiteSpaceEi.exit: ; preds = %7, %16, %31
  %.0.i = phi i8 [ %11, %7 ], [ %28, %16 ], [ %34, %31 ]
  %.not = icmp eq i8 %.0.i, 0
  br i1 %.not, label %_ZN6icu_7712PatternProps20isSyntaxOrWhiteSpaceEi.exit.thread, label %.critedge

_ZN6icu_7712PatternProps20isSyntaxOrWhiteSpaceEi.exit.thread: ; preds = %29, %12, %_ZN6icu_7712PatternProps20isSyntaxOrWhiteSpaceEi.exit
  %35 = getelementptr inbounds nuw i8, ptr %.047, i64 2
  %36 = add nsw i32 %.08, -1
  %37 = icmp sgt i32 %.08, 1
  br i1 %37, label %.lr.ph, label %.critedge, !llvm.loop !16

.critedge:                                        ; preds = %_ZN6icu_7712PatternProps20isSyntaxOrWhiteSpaceEi.exit, %_ZN6icu_7712PatternProps20isSyntaxOrWhiteSpaceEi.exit.thread, %2
  %.04.lcssa = phi ptr [ %0, %2 ], [ %35, %_ZN6icu_7712PatternProps20isSyntaxOrWhiteSpaceEi.exit.thread ], [ %.047, %_ZN6icu_7712PatternProps20isSyntaxOrWhiteSpaceEi.exit ]
  ret ptr %.04.lcssa
}